target datalayout = "e-m:e-p270:32:32-p271:32:32-p272:64:64-i64:64-i128:128-f80:128-n8:16:32:64-S128"
target triple = "x86_64-pc-linux-gnu"

%"class.llvm::DataLayout" = type { i8, i32, i32, i32, %"struct.llvm::MaybeAlign", %"struct.llvm::MaybeAlign", i32, i32, %"class.llvm::SmallVector", %"class.llvm::SmallVector.0", %"class.llvm::SmallVector.6", %"class.llvm::SmallVector.8", %"class.llvm::SmallVector.10", %"class.std::__cxx11::basic_string", %"struct.llvm::Align", %"struct.llvm::Align", ptr, %"class.llvm::SmallVector.15" }
%"struct.llvm::MaybeAlign" = type { %"class.std::optional" }
%"class.std::optional" = type { %"struct.std::_Optional_base" }
%"struct.std::_Optional_base" = type { %"struct.std::_Optional_payload" }
%"struct.std::_Optional_payload" = type { %"struct.std::_Optional_payload_base" }
%"struct.std::_Optional_payload_base" = type { %"union.std::_Optional_payload_base<llvm::Align>::_Storage", i8 }
%"union.std::_Optional_payload_base<llvm::Align>::_Storage" = type { %"struct.std::_Optional_payload_base<llvm::Align>::_Empty_byte" }
%"struct.std::_Optional_payload_base<llvm::Align>::_Empty_byte" = type { i8 }
%"class.llvm::SmallVector" = type { %"class.llvm::SmallVectorImpl", %"struct.llvm::SmallVectorStorage" }
%"class.llvm::SmallVectorImpl" = type { %"class.llvm::SmallVectorTemplateBase" }
%"class.llvm::SmallVectorTemplateBase" = type { %"class.llvm::SmallVectorTemplateCommon" }
%"class.llvm::SmallVectorTemplateCommon" = type { %"class.llvm::SmallVectorBase" }
%"class.llvm::SmallVectorBase" = type { ptr, i64, i64 }
%"struct.llvm::SmallVectorStorage" = type { [8 x i8] }
%"class.llvm::SmallVector.0" = type { %"class.llvm::SmallVectorImpl.1", %"struct.llvm::SmallVectorStorage.5" }
%"class.llvm::SmallVectorImpl.1" = type { %"class.llvm::SmallVectorTemplateBase.2" }
%"class.llvm::SmallVectorTemplateBase.2" = type { %"class.llvm::SmallVectorTemplateCommon.3" }
%"class.llvm::SmallVectorTemplateCommon.3" = type { %"class.llvm::SmallVectorBase.4" }
%"class.llvm::SmallVectorBase.4" = type { ptr, i32, i32 }
%"struct.llvm::SmallVectorStorage.5" = type { [48 x i8] }
%"class.llvm::SmallVector.6" = type { %"class.llvm::SmallVectorImpl.1", %"struct.llvm::SmallVectorStorage.7" }
%"struct.llvm::SmallVectorStorage.7" = type { [32 x i8] }
%"class.llvm::SmallVector.8" = type { %"class.llvm::SmallVectorImpl.1", %"struct.llvm::SmallVectorStorage.9" }
%"struct.llvm::SmallVectorStorage.9" = type { [80 x i8] }
%"class.llvm::SmallVector.10" = type { %"class.llvm::SmallVectorImpl.11", %"struct.llvm::SmallVectorStorage.14" }
%"class.llvm::SmallVectorImpl.11" = type { %"class.llvm::SmallVectorTemplateBase.12" }
%"class.llvm::SmallVectorTemplateBase.12" = type { %"class.llvm::SmallVectorTemplateCommon.13" }
%"class.llvm::SmallVectorTemplateCommon.13" = type { %"class.llvm::SmallVectorBase.4" }
%"struct.llvm::SmallVectorStorage.14" = type { [128 x i8] }
%"class.std::__cxx11::basic_string" = type { %"struct.std::__cxx11::basic_string<char>::_Alloc_hider", i64, %union.anon }
%"struct.std::__cxx11::basic_string<char>::_Alloc_hider" = type { ptr }
%union.anon = type { i64, [8 x i8] }
%"struct.llvm::Align" = type { i8 }
%"class.llvm::SmallVector.15" = type { %"class.llvm::SmallVectorImpl.16", %"struct.llvm::SmallVectorStorage.19" }
%"class.llvm::SmallVectorImpl.16" = type { %"class.llvm::SmallVectorTemplateBase.17" }
%"class.llvm::SmallVectorTemplateBase.17" = type { %"class.llvm::SmallVectorTemplateCommon.18" }
%"class.llvm::SmallVectorTemplateCommon.18" = type { %"class.llvm::SmallVectorBase.4" }
%"struct.llvm::SmallVectorStorage.19" = type { [32 x i8] }

; Function Attrs: mustprogress nounwind uwtable
define linkonce_odr hidden noundef signext i8 @_ZNK4llvm10DataLayout15getGlobalPrefixEv(ptr noundef nonnull align 8 dereferenceable(512) %0) #0 comdat align 2 {
  %2 = alloca i8, align 1
  %3 = alloca ptr, align 8
  store ptr %0, ptr %3, align 8
  %4 = load ptr, ptr %3, align 8
  %5 = getelementptr inbounds nuw %"class.llvm::DataLayout", ptr %4, i32 0, i32 7
  %6 = load i32, ptr %5, align 8
  switch i32 %6, label %9 [
    i32 0, label %7
    i32 1, label %7
    i32 5, label %7
    i32 6, label %7
    i32 3, label %7
    i32 7, label %7
    i32 2, label %8
    i32 4, label %8
  ]

7:                                                ; preds = %1, %1, %1, %1, %1, %1
  store i8 0, ptr %2, align 1
  br label %10

8:                                                ; preds = %1, %1
  store i8 95, ptr %2, align 1
  br label %10

9:                                                ; preds = %1
  unreachable

10:                                               ; preds = %8, %7
  %11 = load i8, ptr %2, align 1
  ret i8 %11
}

; Function Attrs: mustprogress nounwind uwtable
define internal void @_ZL21getNameWithPrefixImplRN4llvm11raw_ostreamERKNS_5TwineERKNS_10DataLayoutEN12_GLOBAL__N_115ManglerPrefixTyE(ptr noundef nonnull align 8 dereferenceable(48) %0, ptr noundef nonnull align 8 dereferenceable(34) %1, ptr noundef nonnull align 8 dereferenceable(512) %2, i32 noundef %3) #0 {
  %5 = alloca ptr, align 8
  %6 = alloca ptr, align 8
  %7 = alloca ptr, align 8
  %8 = alloca i32, align 4
  %9 = alloca i8, align 1
  store ptr %0, ptr %5, align 8
  store ptr %1, ptr %6, align 8
  store ptr %2, ptr %7, align 8
  store i32 %3, ptr %8, align 4
  %10 = load ptr, ptr %7, align 8
  %11 = call noundef signext i8 @_ZNK4llvm10DataLayout15getGlobalPrefixEv(ptr noundef nonnull align 8 dereferenceable(512) %10)
  store i8 %11, ptr %9, align 1
  %12 = load ptr, ptr %5, align 8
  %13 = load ptr, ptr %6, align 8
  %14 = load i32, ptr %8, align 4
  %15 = load ptr, ptr %7, align 8
  %16 = load i8, ptr %9, align 1
  call void @_ZL21getNameWithPrefixImplRN4llvm11raw_ostreamERKNS_5TwineEN12_GLOBAL__N_115ManglerPrefixTyERKNS_10DataLayoutEc(ptr noundef nonnull align 8 dereferenceable(48) %12, ptr noundef nonnull align 8 dereferenceable(34) %13, i32 noundef %14, ptr noundef nonnull align 8 dereferenceable(512) %15, i8 noundef signext %16)
  ret void
}

; Function Attrs: mustprogress nounwind uwtable
define dso_local void @_ZN4llvm7Mangler17getNameWithPrefixERNS_11raw_ostreamERKNS_5TwineERKNS_10DataLayoutE(ptr noundef nonnull align 8 dereferenceable(48) %0, ptr noundef nonnull align 8 dereferenceable(34) %1, ptr noundef nonnull align 8 dereferenceable(512) %2) #0 align 2 {
  %4 = alloca ptr, align 8
  %5 = alloca ptr, align 8
  %6 = alloca ptr, align 8
  store ptr %0, ptr %4, align 8
  store ptr %1, ptr %5, align 8
  store ptr %2, ptr %6, align 8
  %7 = load ptr, ptr %4, align 8
  %8 = load ptr, ptr %5, align 8
  %9 = load ptr, ptr %6, align 8
  call void @_ZL21getNameWithPrefixImplRN4llvm11raw_ostreamERKNS_5TwineERKNS_10DataLayoutEN12_GLOBAL__N_115ManglerPrefixTyE(ptr noundef nonnull align 8 dereferenceable(48) %7, ptr noundef nonnull align 8 dereferenceable(34) %8, ptr noundef nonnull align 8 dereferenceable(512) %9, i32 noundef 0)
  ret void
}