; Function Attrs: mustprogress nounwind uwtable
define dso_local void @_ZN4llvm7Mangler17getNameWithPrefixERNS_11raw_ostreamERKNS_5TwineERKNS_10DataLayoutE(ptr noundef nonnull align 8 dereferenceable(48) %0, ptr noundef nonnull align 8 dereferenceable(34) %1, ptr nocapture noundef nonnull readonly align 8 dereferenceable(512) %2) local_unnamed_addr #0 align 2 {
switch.lookup:
  %3 = getelementptr inbounds nuw i8, ptr %2, i64 24
  %4 = load i32, ptr %3, align 8
  %switch.cast = zext i32 %4 to i64
  %switch.shiftamt = shl nuw nsw i64 %switch.cast, 3
  %switch.downshift = lshr i64 408028119040, %switch.shiftamt
  %switch.masked = trunc i64 %switch.downshift to i8
  tail call fastcc void @_ZL21getNameWithPrefixImplRN4llvm11raw_ostreamERKNS_5TwineEN12_GLOBAL__N_115ManglerPrefixTyERKNS_10DataLayoutEc(ptr noundef nonnull align 8 dereferenceable(48) %0, ptr noundef nonnull align 8 dereferenceable(34) %1, i32 noundef 0, ptr noundef nonnull readonly align 8 dereferenceable(512) %2, i8 noundef signext %switch.masked)
  ret void
}